; Function Attrs: mustprogress uwtable
define hidden void @_ZN4cvc58internal6theory11quantifiers18EnumStreamConcrete8addValueENS0_12NodeTemplateILb1EEE(ptr noundef nonnull align 8 dereferenceable(480) %this, ptr nocapture noundef readonly %v) unnamed_addr #3 align 2 personality ptr @__gxx_personality_v0 {
entry:
  %agg.tmp = alloca %"class.cvc5::internal::NodeTemplate", align 8
  %ref.tmp = alloca %"class.cvc5::internal::NodeTemplate", align 8
  %d_ess = getelementptr inbounds i8, ptr %this, i64 16
  %0 = load ptr, ptr %v, align 8
  store ptr %0, ptr %agg.tmp, align 8
  %bf.load.i.i = load i64, ptr %0, align 8
  %bf.lshr.i.i = lshr i64 %bf.load.i.i, 40
  %1 = trunc i64 %bf.lshr.i.i to i32
  %bf.cast.i.i = and i32 %1, 1048575
  %cmp.i.i = icmp ult i32 %bf.cast.i.i, 1048574
  br i1 %cmp.i.i, label %if.then.i.i, label %if.else.i.i

if.then.i.i:                                      ; preds = %entry
  %bf.value.i.i = add i64 %bf.load.i.i, 1099511627776
  %bf.shl.i.i = and i64 %bf.value.i.i, 1152920405095219200
  %bf.clear7.i.i = and i64 %bf.load.i.i, -1152920405095219201
  %bf.set.i.i = or disjoint i64 %bf.shl.i.i, %bf.clear7.i.i
  store i64 %bf.set.i.i, ptr %0, align 8
  br label %_ZN4cvc58internal12NodeTemplateILb1EEC2ERKS2_.exit

if.else.i.i:                                      ; preds = %entry
  %cmp12.i.i = icmp eq i32 %bf.cast.i.i, 1048574
  br i1 %cmp12.i.i, label %if.then13.i.i, label %_ZN4cvc58internal12NodeTemplateILb1EEC2ERKS2_.exit

if.then13.i.i:                                    ; preds = %if.else.i.i
  %bf.set23.i.i = or i64 %bf.load.i.i, 1152920405095219200
  store i64 %bf.set23.i.i, ptr %0, align 8
  tail call void @_ZN4cvc58internal4expr9NodeValue20markRefCountMaxedOutEv(ptr noundef nonnull align 8 dereferenceable(16) %0)
  br label %_ZN4cvc58internal12NodeTemplateILb1EEC2ERKS2_.exit

_ZN4cvc58internal12NodeTemplateILb1EEC2ERKS2_.exit: ; preds = %if.then.i.i, %if.else.i.i, %if.then13.i.i
  invoke void @_ZN4cvc58internal6theory11quantifiers22EnumStreamSubstitution10resetValueENS0_12NodeTemplateILb1EEE(ptr noundef nonnull align 8 dereferenceable(452) %d_ess, ptr noundef nonnull %agg.tmp)
          to label %invoke.cont unwind label %lpad

invoke.cont:                                      ; preds = %_ZN4cvc58internal12NodeTemplateILb1EEC2ERKS2_.exit
  %bf.load.i.i2 = load i64, ptr %0, align 8
  %2 = and i64 %bf.load.i.i2, 1152920405095219200
  %cmp.not.i.i = icmp eq i64 %2, 1152920405095219200
  br i1 %cmp.not.i.i, label %_ZN4cvc58internal12NodeTemplateILb1EED2Ev.exit, label %if.then.i.i3

if.then.i.i3:                                     ; preds = %invoke.cont
  %bf.value.i.i4 = add i64 %bf.load.i.i2, 1152920405095219200
  %bf.shl.i.i5 = and i64 %bf.value.i.i4, 1152920405095219200
  %bf.clear7.i.i6 = and i64 %bf.load.i.i2, -1152920405095219201
  %bf.set.i.i7 = or disjoint i64 %bf.shl.i.i5, %bf.clear7.i.i6
  store i64 %bf.set.i.i7, ptr %0, align 8
  %cmp12.i.i8 = icmp eq i64 %bf.shl.i.i5, 0
  br i1 %cmp12.i.i8, label %if.then13.i.i9, label %_ZN4cvc58internal12NodeTemplateILb1EED2Ev.exit

if.then13.i.i9:                                   ; preds = %if.then.i.i3
  invoke void @_ZN4cvc58internal4expr9NodeValue15markForDeletionEv(ptr noundef nonnull align 8 dereferenceable(16) %0)
          to label %_ZN4cvc58internal12NodeTemplateILb1EED2Ev.exit unwind label %terminate.lpad.i

terminate.lpad.i:                                 ; preds = %if.then13.i.i9
  %3 = landingpad { ptr, i32 }
          catch ptr null
  %4 = extractvalue { ptr, i32 } %3, 0
  tail call void @__clang_call_terminate(ptr %4) #24
  unreachable

_ZN4cvc58internal12NodeTemplateILb1EED2Ev.exit:   ; preds = %invoke.cont, %if.then.i.i3, %if.then13.i.i9
  call void @_ZN4cvc58internal6theory11quantifiers22EnumStreamSubstitution7getNextEv(ptr nonnull sret(%"class.cvc5::internal::NodeTemplate") align 8 %ref.tmp, ptr noundef nonnull align 8 dereferenceable(452) %d_ess)
  %d_currTerm = getelementptr inbounds i8, ptr %this, i64 472
  %5 = load ptr, ptr %d_currTerm, align 8
  %6 = load ptr, ptr %ref.tmp, align 8
  %cmp.not.i = icmp eq ptr %5, %6
  br i1 %cmp.not.i, label %invoke.cont4, label %if.then.i

if.then.i:                                        ; preds = %_ZN4cvc58internal12NodeTemplateILb1EED2Ev.exit
  %bf.load.i.i10 = load i64, ptr %5, align 8
  %7 = and i64 %bf.load.i.i10, 1152920405095219200
  %cmp.not.i.i11 = icmp eq i64 %7, 1152920405095219200
  br i1 %cmp.not.i.i11, label %_ZN4cvc58internal4expr9NodeValue3decEv.exit.i, label %if.then.i.i12

if.then.i.i12:                                    ; preds = %if.then.i
  %bf.value.i.i13 = add i64 %bf.load.i.i10, 1152920405095219200
  %bf.shl.i.i14 = and i64 %bf.value.i.i13, 1152920405095219200
  %bf.clear7.i.i15 = and i64 %bf.load.i.i10, -1152920405095219201
  %bf.set.i.i16 = or disjoint i64 %bf.shl.i.i14, %bf.clear7.i.i15
  store i64 %bf.set.i.i16, ptr %5, align 8
  %cmp12.i.i17 = icmp eq i64 %bf.shl.i.i14, 0
  br i1 %cmp12.i.i17, label %if.then13.i.i23, label %_ZN4cvc58internal4expr9NodeValue3decEv.exit.i

if.then13.i.i23:                                  ; preds = %if.then.i.i12
  invoke void @_ZN4cvc58internal4expr9NodeValue15markForDeletionEv(ptr noundef nonnull align 8 dereferenceable(16) %5)
          to label %_ZN4cvc58internal4expr9NodeValue3decEv.exit.i unwind label %lpad3

_ZN4cvc58internal4expr9NodeValue3decEv.exit.i:    ; preds = %if.then13.i.i23, %if.then.i.i12, %if.then.i
  store ptr %6, ptr %d_currTerm, align 8
  %bf.load.i2.i = load i64, ptr %6, align 8
  %bf.lshr.i.i18 = lshr i64 %bf.load.i2.i, 40
  %8 = trunc i64 %bf.lshr.i.i18 to i32
  %bf.cast.i.i19 = and i32 %8, 1048575
  %cmp.i.i20 = icmp ult i32 %bf.cast.i.i19, 1048574
  br i1 %cmp.i.i20, label %if.then.i5.i, label %if.else.i.i21

if.then.i5.i:                                     ; preds = %_ZN4cvc58internal4expr9NodeValue3decEv.exit.i
  %bf.value.i6.i = add i64 %bf.load.i2.i, 1099511627776
  %bf.shl.i7.i = and i64 %bf.value.i6.i, 1152920405095219200
  %bf.clear7.i8.i = and i64 %bf.load.i2.i, -1152920405095219201
  %bf.set.i9.i = or disjoint i64 %bf.shl.i7.i, %bf.clear7.i8.i
  store i64 %bf.set.i9.i, ptr %6, align 8
  br label %invoke.cont4

if.else.i.i21:                                    ; preds = %_ZN4cvc58internal4expr9NodeValue3decEv.exit.i
  %cmp12.i3.i = icmp eq i32 %bf.cast.i.i19, 1048574
  br i1 %cmp12.i3.i, label %if.then13.i4.i, label %invoke.cont4

if.then13.i4.i:                                   ; preds = %if.else.i.i21
  %bf.set23.i.i22 = or i64 %bf.load.i2.i, 1152920405095219200
  store i64 %bf.set23.i.i22, ptr %6, align 8
  invoke void @_ZN4cvc58internal4expr9NodeValue20markRefCountMaxedOutEv(ptr noundef nonnull align 8 dereferenceable(16) %6)
          to label %invoke.cont4 unwind label %lpad3

invoke.cont4:                                     ; preds = %if.else.i.i21, %if.then.i5.i, %_ZN4cvc58internal12NodeTemplateILb1EED2Ev.exit, %if.then13.i4.i
  %bf.load.i.i25 = load i64, ptr %6, align 8
  %9 = and i64 %bf.load.i.i25, 1152920405095219200
  %cmp.not.i.i26 = icmp eq i64 %9, 1152920405095219200
  br i1 %cmp.not.i.i26, label %_ZN4cvc58internal12NodeTemplateILb1EED2Ev.exit35, label %if.then.i.i27

if.then.i.i27:                                    ; preds = %invoke.cont4
  %bf.value.i.i28 = add i64 %bf.load.i.i25, 1152920405095219200
  %bf.shl.i.i29 = and i64 %bf.value.i.i28, 1152920405095219200
  %bf.clear7.i.i30 = and i64 %bf.load.i.i25, -1152920405095219201
  %bf.set.i.i31 = or disjoint i64 %bf.shl.i.i29, %bf.clear7.i.i30
  store i64 %bf.set.i.i31, ptr %6, align 8
  %cmp12.i.i32 = icmp eq i64 %bf.shl.i.i29, 0
  br i1 %cmp12.i.i32, label %if.then13.i.i33, label %_ZN4cvc58internal12NodeTemplateILb1EED2Ev.exit35

if.then13.i.i33:                                  ; preds = %if.then.i.i27
  invoke void @_ZN4cvc58internal4expr9NodeValue15markForDeletionEv(ptr noundef nonnull align 8 dereferenceable(16) %6)
          to label %_ZN4cvc58internal12NodeTemplateILb1EED2Ev.exit35 unwind label %terminate.lpad.i34

terminate.lpad.i34:                               ; preds = %if.then13.i.i33
  %10 = landingpad { ptr, i32 }
          catch ptr null
  %11 = extractvalue { ptr, i32 } %10, 0
  tail call void @__clang_call_terminate(ptr %11) #24
  unreachable

_ZN4cvc58internal12NodeTemplateILb1EED2Ev.exit35: ; preds = %invoke.cont4, %if.then.i.i27, %if.then13.i.i33
  ret void

lpad:                                             ; preds = %_ZN4cvc58internal12NodeTemplateILb1EEC2ERKS2_.exit
  %12 = landingpad { ptr, i32 }
          cleanup
  br label %eh.resume

lpad3:                                            ; preds = %if.then13.i4.i, %if.then13.i.i23
  %13 = landingpad { ptr, i32 }
          cleanup
  br label %eh.resume

eh.resume:                                        ; preds = %lpad3, %lpad
  %ref.tmp.sink = phi ptr [ %ref.tmp, %lpad3 ], [ %agg.tmp, %lpad ]
  %.pn = phi { ptr, i32 } [ %13, %lpad3 ], [ %12, %lpad ]
  call void @_ZN4cvc58internal12NodeTemplateILb1EED2Ev(ptr noundef nonnull align 8 dereferenceable(8) %ref.tmp.sink) #22
  resume { ptr, i32 } %.pn
}